target datalayout = "e-m:e-p270:32:32-p271:32:32-p272:64:64-i64:64-i128:128-f80:128-n8:16:32:64-S128"
target triple = "x86_64-pc-linux-gnu"

%struct._dcerpc_info = type { ptr, i32, i64, i8, i8, i8, i32, i32, i32, i32, i32, i32, i32, i32, ptr, ptr, ptr, ptr, %struct.anon }
%struct.anon = type { i8, ptr, ptr, ptr, i8 }

@hf_netlogon_logon_dom = internal global i32 0, align 4
@hf_netlogon_dc_name = internal global i32 0, align 4
@.str.256 = private unnamed_addr constant [8 x i8] c"DC Name\00", align 1
@hf_netlogon_dc_site_name = internal global i32 0, align 4
@hf_netlogon_dns_forest_name = internal global i32 0, align 4
@hf_netlogon_dc_address = internal global i32 0, align 4
@.str.262 = private unnamed_addr constant [11 x i8] c"DC Address\00", align 1
@hf_netlogon_dc_address_type = internal global i32 0, align 4
@hf_netlogon_client_site_name = internal global i32 0, align 4
@hf_netlogon_dc_flags = internal global i32 0, align 4
@.str.509 = private unnamed_addr constant [11 x i8] c"DNS Forest\00", align 1
@ett_DOMAIN_CONTROLLER_INFO = internal global i32 0, align 4
@ett_dc_flags = internal global i32 0, align 4
@.str.1244 = private unnamed_addr constant [24 x i8] c"DOMAIN_CONTROLLER_INFO:\00", align 1
@.str.1245 = private unnamed_addr constant [13 x i8] c"Logon Domain\00", align 1
@.str.1246 = private unnamed_addr constant [8 x i8] c"DC Site\00", align 1
@.str.1247 = private unnamed_addr constant [12 x i8] c"Client Site\00", align 1
@.str.1248 = private unnamed_addr constant [26 x i8] c"  PING (mask==0x0000ffff)\00", align 1

; Function Attrs: null_pointer_is_valid sspstrong uwtable
define internal i32 @netlogon_dissect_DC_FLAGS(ptr noundef %0, i32 noundef %1, ptr noundef %2, ptr noundef %3, ptr noundef %4, ptr noundef %5) #0 {
  %7 = alloca i32, align 4
  %8 = alloca ptr, align 8
  %9 = alloca i32, align 4
  %10 = alloca ptr, align 8
  %11 = alloca ptr, align 8
  %12 = alloca ptr, align 8
  %13 = alloca ptr, align 8
  %14 = alloca i32, align 4
  %15 = alloca ptr, align 8
  %16 = alloca i32, align 4
  store ptr %0, ptr %8, align 8
  store i32 %1, ptr %9, align 4
  store ptr %2, ptr %10, align 8
  store ptr %3, ptr %11, align 8
  store ptr %4, ptr %12, align 8
  store ptr %5, ptr %13, align 8
  call void @llvm.lifetime.start.p0(i64 4, ptr %14) #15
  call void @llvm.lifetime.start.p0(i64 8, ptr %15) #15
  %17 = load ptr, ptr %12, align 8
  %18 = getelementptr inbounds nuw %struct._dcerpc_info, ptr %17, i32 0, i32 4
  %19 = load i8, ptr %18, align 1, !range !6, !noundef !7
  %20 = trunc i8 %19 to i1
  br i1 %20, label %21, label %23

21:                                               ; preds = %6
  %22 = load i32, ptr %9, align 4
  store i32 %22, ptr %7, align 4
  store i32 1, ptr %16, align 4
  br label %45

23:                                               ; preds = %6
  %24 = load ptr, ptr %8, align 8
  %25 = load i32, ptr %9, align 4
  %26 = load ptr, ptr %10, align 8
  %27 = load ptr, ptr %12, align 8
  %28 = load ptr, ptr %13, align 8
  %29 = call i32 @dissect_ndr_uint32(ptr noundef %24, i32 noundef %25, ptr noundef %26, ptr noundef null, ptr noundef %27, ptr noundef %28, i32 noundef -1, ptr noundef %14)
  store i32 %29, ptr %9, align 4
  %30 = load ptr, ptr %11, align 8
  %31 = load ptr, ptr %8, align 8
  %32 = load i32, ptr %9, align 4
  %33 = sub i32 %32, 4
  %34 = load i32, ptr @hf_netlogon_dc_flags, align 4
  %35 = load i32, ptr @ett_dc_flags, align 4
  %36 = load i32, ptr %14, align 4
  %37 = zext i32 %36 to i64
  %38 = call ptr @proto_tree_add_bitmask_value_with_flags(ptr noundef %30, ptr noundef %31, i32 noundef %33, i32 noundef %34, i32 noundef %35, ptr noundef @netlogon_dissect_DC_FLAGS.flags, i64 noundef %37, i32 noundef 1)
  store ptr %38, ptr %15, align 8
  %39 = load i32, ptr %14, align 4
  %40 = icmp eq i32 %39, 65535
  br i1 %40, label %41, label %43

41:                                               ; preds = %23
  %42 = load ptr, ptr %15, align 8
  call void (ptr, ptr, ...) @proto_item_append_text(ptr noundef %42, ptr noundef @.str.1248)
  br label %43

43:                                               ; preds = %41, %23
  %44 = load i32, ptr %9, align 4
  store i32 %44, ptr %7, align 4
  store i32 1, ptr %16, align 4
  br label %45

45:                                               ; preds = %43, %21
  call void @llvm.lifetime.end.p0(i64 8, ptr %15) #15
  call void @llvm.lifetime.end.p0(i64 4, ptr %14) #15
  %46 = load i32, ptr %7, align 4
  ret i32 %46
}

; Function Attrs: null_pointer_is_valid sspstrong uwtable
define internal i32 @netlogon_dissect_DOMAIN_CONTROLLER_INFO(ptr noundef %0, i32 noundef %1, ptr noundef %2, ptr noundef %3, ptr noundef %4, ptr noundef %5) #0 {
  %7 = alloca ptr, align 8
  %8 = alloca i32, align 4
  %9 = alloca ptr, align 8
  %10 = alloca ptr, align 8
  %11 = alloca ptr, align 8
  %12 = alloca ptr, align 8
  %13 = alloca ptr, align 8
  %14 = alloca ptr, align 8
  %15 = alloca i32, align 4
  store ptr %0, ptr %7, align 8
  store i32 %1, ptr %8, align 4
  store ptr %2, ptr %9, align 8
  store ptr %3, ptr %10, align 8
  store ptr %4, ptr %11, align 8
  store ptr %5, ptr %12, align 8
  call void @llvm.lifetime.start.p0(i64 8, ptr %13) #15
  store ptr null, ptr %13, align 8
  call void @llvm.lifetime.start.p0(i64 8, ptr %14) #15
  store ptr null, ptr %14, align 8
  call void @llvm.lifetime.start.p0(i64 4, ptr %15) #15
  %16 = load i32, ptr %8, align 4
  store i32 %16, ptr %15, align 4
  %17 = load ptr, ptr %10, align 8
  %18 = icmp ne ptr %17, null
  br i1 %18, label %19, label %25

19:                                               ; preds = %6
  %20 = load ptr, ptr %10, align 8
  %21 = load ptr, ptr %7, align 8
  %22 = load i32, ptr %8, align 4
  %23 = load i32, ptr @ett_DOMAIN_CONTROLLER_INFO, align 4
  %24 = call ptr @proto_tree_add_subtree(ptr noundef %20, ptr noundef %21, i32 noundef %22, i32 noundef 0, i32 noundef %23, ptr noundef %13, ptr noundef @.str.1244)
  store ptr %24, ptr %14, align 8
  br label %25

25:                                               ; preds = %19, %6
  %26 = load ptr, ptr %7, align 8
  %27 = load i32, ptr %8, align 4
  %28 = load ptr, ptr %9, align 8
  %29 = load ptr, ptr %14, align 8
  %30 = load ptr, ptr %11, align 8
  %31 = load ptr, ptr %12, align 8
  %32 = load i32, ptr @hf_netlogon_dc_name, align 4
  %33 = call i32 @dissect_ndr_str_pointer_item(ptr noundef %26, i32 noundef %27, ptr noundef %28, ptr noundef %29, ptr noundef %30, ptr noundef %31, i32 noundef 2, ptr noundef @.str.256, i32 noundef %32, i32 noundef 0)
  store i32 %33, ptr %8, align 4
  %34 = load ptr, ptr %7, align 8
  %35 = load i32, ptr %8, align 4
  %36 = load ptr, ptr %9, align 8
  %37 = load ptr, ptr %14, align 8
  %38 = load ptr, ptr %11, align 8
  %39 = load ptr, ptr %12, align 8
  %40 = load i32, ptr @hf_netlogon_dc_address, align 4
  %41 = call i32 @dissect_ndr_str_pointer_item(ptr noundef %34, i32 noundef %35, ptr noundef %36, ptr noundef %37, ptr noundef %38, ptr noundef %39, i32 noundef 2, ptr noundef @.str.262, i32 noundef %40, i32 noundef 0)
  store i32 %41, ptr %8, align 4
  %42 = load ptr, ptr %7, align 8
  %43 = load i32, ptr %8, align 4
  %44 = load ptr, ptr %9, align 8
  %45 = load ptr, ptr %14, align 8
  %46 = load ptr, ptr %11, align 8
  %47 = load ptr, ptr %12, align 8
  %48 = load i32, ptr @hf_netlogon_dc_address_type, align 4
  %49 = call i32 @dissect_ndr_uint32(ptr noundef %42, i32 noundef %43, ptr noundef %44, ptr noundef %45, ptr noundef %46, ptr noundef %47, i32 noundef %48, ptr noundef null)
  store i32 %49, ptr %8, align 4
  %50 = load ptr, ptr %7, align 8
  %51 = load i32, ptr %8, align 4
  %52 = load ptr, ptr %9, align 8
  %53 = load ptr, ptr %14, align 8
  %54 = load ptr, ptr %11, align 8
  %55 = load ptr, ptr %12, align 8
  %56 = call i32 @dissect_nt_GUID(ptr noundef %50, i32 noundef %51, ptr noundef %52, ptr noundef %53, ptr noundef %54, ptr noundef %55)
  store i32 %56, ptr %8, align 4
  %57 = load ptr, ptr %7, align 8
  %58 = load i32, ptr %8, align 4
  %59 = load ptr, ptr %9, align 8
  %60 = load ptr, ptr %14, align 8
  %61 = load ptr, ptr %11, align 8
  %62 = load ptr, ptr %12, align 8
  %63 = load i32, ptr @hf_netlogon_logon_dom, align 4
  %64 = call i32 @dissect_ndr_str_pointer_item(ptr noundef %57, i32 noundef %58, ptr noundef %59, ptr noundef %60, ptr noundef %61, ptr noundef %62, i32 noundef 2, ptr noundef @.str.1245, i32 noundef %63, i32 noundef 0)
  store i32 %64, ptr %8, align 4
  %65 = load ptr, ptr %7, align 8
  %66 = load i32, ptr %8, align 4
  %67 = load ptr, ptr %9, align 8
  %68 = load ptr, ptr %14, align 8
  %69 = load ptr, ptr %11, align 8
  %70 = load ptr, ptr %12, align 8
  %71 = load i32, ptr @hf_netlogon_dns_forest_name, align 4
  %72 = call i32 @dissect_ndr_str_pointer_item(ptr noundef %65, i32 noundef %66, ptr noundef %67, ptr noundef %68, ptr noundef %69, ptr noundef %70, i32 noundef 2, ptr noundef @.str.509, i32 noundef %71, i32 noundef 0)
  store i32 %72, ptr %8, align 4
  %73 = load ptr, ptr %7, align 8
  %74 = load i32, ptr %8, align 4
  %75 = load ptr, ptr %9, align 8
  %76 = load ptr, ptr %14, align 8
  %77 = load ptr, ptr %11, align 8
  %78 = load ptr, ptr %12, align 8
  %79 = call i32 @netlogon_dissect_DC_FLAGS(ptr noundef %73, i32 noundef %74, ptr noundef %75, ptr noundef %76, ptr noundef %77, ptr noundef %78)
  store i32 %79, ptr %8, align 4
  %80 = load ptr, ptr %7, align 8
  %81 = load i32, ptr %8, align 4
  %82 = load ptr, ptr %9, align 8
  %83 = load ptr, ptr %14, align 8
  %84 = load ptr, ptr %11, align 8
  %85 = load ptr, ptr %12, align 8
  %86 = load i32, ptr @hf_netlogon_dc_site_name, align 4
  %87 = call i32 @dissect_ndr_str_pointer_item(ptr noundef %80, i32 noundef %81, ptr noundef %82, ptr noundef %83, ptr noundef %84, ptr noundef %85, i32 noundef 2, ptr noundef @.str.1246, i32 noundef %86, i32 noundef 0)
  store i32 %87, ptr %8, align 4
  %88 = load ptr, ptr %7, align 8
  %89 = load i32, ptr %8, align 4
  %90 = load ptr, ptr %9, align 8
  %91 = load ptr, ptr %14, align 8
  %92 = load ptr, ptr %11, align 8
  %93 = load ptr, ptr %12, align 8
  %94 = load i32, ptr @hf_netlogon_client_site_name, align 4
  %95 = call i32 @dissect_ndr_str_pointer_item(ptr noundef %88, i32 noundef %89, ptr noundef %90, ptr noundef %91, ptr noundef %92, ptr noundef %93, i32 noundef 2, ptr noundef @.str.1247, i32 noundef %94, i32 noundef 0)
  store i32 %95, ptr %8, align 4
  %96 = load ptr, ptr %13, align 8
  %97 = load i32, ptr %8, align 4
  %98 = load i32, ptr %15, align 4
  %99 = sub i32 %97, %98
  call void @proto_item_set_len(ptr noundef %96, i32 noundef %99)
  %100 = load i32, ptr %8, align 4
  call void @llvm.lifetime.end.p0(i64 4, ptr %15) #15
  call void @llvm.lifetime.end.p0(i64 8, ptr %14) #15
  call void @llvm.lifetime.end.p0(i64 8, ptr %13) #15
  ret i32 %100
}