; Function Attrs: null_pointer_is_valid sspstrong uwtable
define internal i32 @netlogon_dissect_DOMAIN_CONTROLLER_INFO(ptr noundef %0, i32 noundef %1, ptr noundef %2, ptr noundef %3, ptr noundef %4, ptr noundef %5) #0 {
  %7 = alloca i32, align 4
  %8 = alloca ptr, align 8
  call void @llvm.lifetime.start.p0(i64 8, ptr nonnull %8) #15
  store ptr null, ptr %8, align 8
  %.not = icmp eq ptr %3, null
  br i1 %.not, label %12, label %9

9:                                                ; preds = %6
  %10 = load i32, ptr @ett_DOMAIN_CONTROLLER_INFO, align 4
  %11 = call ptr @proto_tree_add_subtree(ptr noundef nonnull %3, ptr noundef %0, i32 noundef %1, i32 noundef 0, i32 noundef %10, ptr noundef nonnull %8, ptr noundef nonnull @.str.1244)
  br label %12

12:                                               ; preds = %9, %6
  %.0 = phi ptr [ %11, %9 ], [ null, %6 ]
  %13 = load i32, ptr @hf_netlogon_dc_name, align 4
  %14 = call i32 @dissect_ndr_str_pointer_item(ptr noundef %0, i32 noundef %1, ptr noundef %2, ptr noundef %.0, ptr noundef %4, ptr noundef %5, i32 noundef 2, ptr noundef nonnull @.str.256, i32 noundef %13, i32 noundef 0)
  %15 = load i32, ptr @hf_netlogon_dc_address, align 4
  %16 = call i32 @dissect_ndr_str_pointer_item(ptr noundef %0, i32 noundef %14, ptr noundef %2, ptr noundef %.0, ptr noundef %4, ptr noundef %5, i32 noundef 2, ptr noundef nonnull @.str.262, i32 noundef %15, i32 noundef 0)
  %17 = load i32, ptr @hf_netlogon_dc_address_type, align 4
  %18 = call i32 @dissect_ndr_uint32(ptr noundef %0, i32 noundef %16, ptr noundef %2, ptr noundef %.0, ptr noundef %4, ptr noundef %5, i32 noundef %17, ptr noundef null)
  %19 = call i32 @dissect_nt_GUID(ptr noundef %0, i32 noundef %18, ptr noundef %2, ptr noundef %.0, ptr noundef %4, ptr noundef %5)
  %20 = load i32, ptr @hf_netlogon_logon_dom, align 4
  %21 = call i32 @dissect_ndr_str_pointer_item(ptr noundef %0, i32 noundef %19, ptr noundef %2, ptr noundef %.0, ptr noundef %4, ptr noundef %5, i32 noundef 2, ptr noundef nonnull @.str.1245, i32 noundef %20, i32 noundef 0)
  %22 = load i32, ptr @hf_netlogon_dns_forest_name, align 4
  %23 = call i32 @dissect_ndr_str_pointer_item(ptr noundef %0, i32 noundef %21, ptr noundef %2, ptr noundef %.0, ptr noundef %4, ptr noundef %5, i32 noundef 2, ptr noundef nonnull @.str.509, i32 noundef %22, i32 noundef 0)
  call void @llvm.lifetime.start.p0(i64 4, ptr nonnull %7) #15
  %24 = getelementptr inbounds nuw i8, ptr %4, i64 25
  %25 = load i8, ptr %24, align 1, !range !6, !noundef !7
  %26 = trunc nuw i8 %25 to i1
  br i1 %26, label %netlogon_dissect_DC_FLAGS.exit, label %27

27:                                               ; preds = %12
  %28 = call i32 @dissect_ndr_uint32(ptr noundef %0, i32 noundef %23, ptr noundef %2, ptr noundef null, ptr noundef %4, ptr noundef %5, i32 noundef -1, ptr noundef nonnull %7)
  %29 = add i32 %28, -4
  %30 = load i32, ptr @hf_netlogon_dc_flags, align 4
  %31 = load i32, ptr @ett_dc_flags, align 4
  %32 = load i32, ptr %7, align 4
  %33 = zext i32 %32 to i64
  %34 = call ptr @proto_tree_add_bitmask_value_with_flags(ptr noundef %.0, ptr noundef %0, i32 noundef %29, i32 noundef %30, i32 noundef %31, ptr noundef nonnull @netlogon_dissect_DC_FLAGS.flags, i64 noundef %33, i32 noundef 1)
  %35 = load i32, ptr %7, align 4
  %36 = icmp eq i32 %35, 65535
  br i1 %36, label %37, label %netlogon_dissect_DC_FLAGS.exit

37:                                               ; preds = %27
  call void (ptr, ptr, ...) @proto_item_append_text(ptr noundef %34, ptr noundef nonnull @.str.1248)
  br label %netlogon_dissect_DC_FLAGS.exit

netlogon_dissect_DC_FLAGS.exit:                   ; preds = %12, %27, %37
  %.0.i = phi i32 [ %23, %12 ], [ %28, %37 ], [ %28, %27 ]
  call void @llvm.lifetime.end.p0(i64 4, ptr nonnull %7) #15
  %38 = load i32, ptr @hf_netlogon_dc_site_name, align 4
  %39 = call i32 @dissect_ndr_str_pointer_item(ptr noundef %0, i32 noundef %.0.i, ptr noundef %2, ptr noundef %.0, ptr noundef %4, ptr noundef %5, i32 noundef 2, ptr noundef nonnull @.str.1246, i32 noundef %38, i32 noundef 0)
  %40 = load i32, ptr @hf_netlogon_client_site_name, align 4
  %41 = call i32 @dissect_ndr_str_pointer_item(ptr noundef %0, i32 noundef %39, ptr noundef %2, ptr noundef %.0, ptr noundef %4, ptr noundef %5, i32 noundef 2, ptr noundef nonnull @.str.1247, i32 noundef %40, i32 noundef 0)
  %42 = load ptr, ptr %8, align 8
  %43 = sub i32 %41, %1
  call void @proto_item_set_len(ptr noundef %42, i32 noundef %43)
  call void @llvm.lifetime.end.p0(i64 8, ptr nonnull %8) #15
  ret i32 %41
}